target datalayout = "e-m:e-p270:32:32-p271:32:32-p272:64:64-i64:64-i128:128-f80:128-n8:16:32:64-S128"
target triple = "x86_64-pc-linux-gnu"

%struct.curl_mimepart = type { ptr, ptr, i32, i32, ptr, ptr, ptr, ptr, ptr, ptr, ptr, ptr, ptr, ptr, ptr, i64, %struct.mime_state, ptr, %struct.mime_encoder_state, i64 }
%struct.mime_state = type { i32, ptr, i64 }
%struct.mime_encoder_state = type { i64, i64, i64, [256 x i8] }

; Function Attrs: nounwind uwtable
define internal i64 @encoder_7bit_read(ptr noundef %0, i64 noundef %1, i1 noundef zeroext %2, ptr noundef %3) #0 {
  %5 = alloca i64, align 8
  %6 = alloca ptr, align 8
  %7 = alloca i64, align 8
  %8 = alloca i8, align 1
  %9 = alloca ptr, align 8
  %10 = alloca ptr, align 8
  %11 = alloca i64, align 8
  %12 = alloca i32, align 4
  store ptr %0, ptr %6, align 8, !tbaa !49
  store i64 %1, ptr %7, align 8, !tbaa !50
  %13 = zext i1 %2 to i8
  store i8 %13, ptr %8, align 1, !tbaa !70
  store ptr %3, ptr %9, align 8, !tbaa !4
  call void @llvm.lifetime.start.p0(i64 8, ptr %10) #8
  %14 = load ptr, ptr %9, align 8, !tbaa !4
  %15 = getelementptr inbounds nuw %struct.curl_mimepart, ptr %14, i32 0, i32 18
  store ptr %15, ptr %10, align 8, !tbaa !107
  call void @llvm.lifetime.start.p0(i64 8, ptr %11) #8
  %16 = load ptr, ptr %10, align 8, !tbaa !107
  %17 = getelementptr inbounds nuw %struct.mime_encoder_state, ptr %16, i32 0, i32 2
  %18 = load i64, ptr %17, align 8, !tbaa !111
  %19 = load ptr, ptr %10, align 8, !tbaa !107
  %20 = getelementptr inbounds nuw %struct.mime_encoder_state, ptr %19, i32 0, i32 1
  %21 = load i64, ptr %20, align 8, !tbaa !110
  %22 = sub i64 %18, %21
  store i64 %22, ptr %11, align 8, !tbaa !50
  %23 = load i64, ptr %7, align 8, !tbaa !50
  %24 = icmp ne i64 %23, 0
  br i1 %24, label %26, label %25

25:                                               ; preds = %4
  store i64 -2, ptr %5, align 8
  store i32 1, ptr %12, align 4
  br label %70

26:                                               ; preds = %4
  %27 = load i64, ptr %7, align 8, !tbaa !50
  %28 = load i64, ptr %11, align 8, !tbaa !50
  %29 = icmp ugt i64 %27, %28
  br i1 %29, label %30, label %32

30:                                               ; preds = %26
  %31 = load i64, ptr %11, align 8, !tbaa !50
  store i64 %31, ptr %7, align 8, !tbaa !50
  br label %32

32:                                               ; preds = %30, %26
  store i64 0, ptr %11, align 8, !tbaa !50
  br label %33

33:                                               ; preds = %65, %32
  %34 = load i64, ptr %11, align 8, !tbaa !50
  %35 = load i64, ptr %7, align 8, !tbaa !50
  %36 = icmp ult i64 %34, %35
  br i1 %36, label %37, label %68

37:                                               ; preds = %33
  %38 = load ptr, ptr %10, align 8, !tbaa !107
  %39 = getelementptr inbounds nuw %struct.mime_encoder_state, ptr %38, i32 0, i32 3
  %40 = load ptr, ptr %10, align 8, !tbaa !107
  %41 = getelementptr inbounds nuw %struct.mime_encoder_state, ptr %40, i32 0, i32 1
  %42 = load i64, ptr %41, align 8, !tbaa !110
  %43 = getelementptr inbounds nuw [256 x i8], ptr %39, i64 0, i64 %42
  %44 = load i8, ptr %43, align 1, !tbaa !88
  %45 = load ptr, ptr %6, align 8, !tbaa !49
  store i8 %44, ptr %45, align 1, !tbaa !88
  %46 = load ptr, ptr %6, align 8, !tbaa !49
  %47 = getelementptr inbounds nuw i8, ptr %46, i32 1
  store ptr %47, ptr %6, align 8, !tbaa !49
  %48 = load i8, ptr %46, align 1, !tbaa !88
  %49 = sext i8 %48 to i32
  %50 = and i32 %49, 128
  %51 = icmp ne i32 %50, 0
  br i1 %51, label %52, label %60

52:                                               ; preds = %37
  %53 = load i64, ptr %11, align 8, !tbaa !50
  %54 = icmp ne i64 %53, 0
  br i1 %54, label %55, label %57

55:                                               ; preds = %52
  %56 = load i64, ptr %11, align 8, !tbaa !50
  br label %58

57:                                               ; preds = %52
  br label %58

58:                                               ; preds = %57, %55
  %59 = phi i64 [ %56, %55 ], [ -1, %57 ]
  store i64 %59, ptr %5, align 8
  store i32 1, ptr %12, align 4
  br label %70

60:                                               ; preds = %37
  %61 = load ptr, ptr %10, align 8, !tbaa !107
  %62 = getelementptr inbounds nuw %struct.mime_encoder_state, ptr %61, i32 0, i32 1
  %63 = load i64, ptr %62, align 8, !tbaa !110
  %64 = add i64 %63, 1
  store i64 %64, ptr %62, align 8, !tbaa !110
  br label %65

65:                                               ; preds = %60
  %66 = load i64, ptr %11, align 8, !tbaa !50
  %67 = add i64 %66, 1
  store i64 %67, ptr %11, align 8, !tbaa !50
  br label %33, !llvm.loop !112

68:                                               ; preds = %33
  %69 = load i64, ptr %11, align 8, !tbaa !50
  store i64 %69, ptr %5, align 8
  store i32 1, ptr %12, align 4
  br label %70

70:                                               ; preds = %68, %58, %25
  call void @llvm.lifetime.end.p0(i64 8, ptr %11) #8
  call void @llvm.lifetime.end.p0(i64 8, ptr %10) #8
  %71 = load i64, ptr %5, align 8
  ret i64 %71
}