; Function Attrs: nofree norecurse nosync nounwind memory(argmem: readwrite) uwtable
define internal i64 @encoder_7bit_read(ptr noundef writeonly captures(none) %0, i64 noundef %1, i1 zeroext %2, ptr noundef captures(none) %3) #14 {
  %5 = getelementptr inbounds nuw i8, ptr %3, i64 160
  %.not = icmp eq i64 %1, 0
  br i1 %.not, label %.loopexit, label %6

6:                                                ; preds = %4
  %7 = getelementptr inbounds nuw i8, ptr %3, i64 168
  %8 = load i64, ptr %7, align 8, !tbaa !70
  %9 = load i64, ptr %5, align 8, !tbaa !69
  %.not28 = icmp eq i64 %8, %9
  br i1 %.not28, label %.loopexit, label %.lr.ph

.lr.ph:                                           ; preds = %6
  %10 = sub i64 %8, %9
  %spec.select = tail call i64 @llvm.umin.i64(i64 %1, i64 %10)
  %11 = getelementptr inbounds nuw i8, ptr %3, i64 176
  %umax = tail call i64 @llvm.umax.i64(i64 %spec.select, i64 1)
  br label %12

12:                                               ; preds = %.lr.ph, %18
  %13 = phi i64 [ %9, %.lr.ph ], [ %21, %18 ]
  %.027 = phi i64 [ 0, %.lr.ph ], [ %22, %18 ]
  %.01926 = phi ptr [ %0, %.lr.ph ], [ %19, %18 ]
  %14 = getelementptr inbounds nuw [256 x i8], ptr %11, i64 0, i64 %13
  %15 = load i8, ptr %14, align 1, !tbaa !67
  store i8 %15, ptr %.01926, align 1, !tbaa !67
  %.not23 = icmp sgt i8 %15, -1
  br i1 %.not23, label %18, label %16

16:                                               ; preds = %12
  %.not24 = icmp eq i64 %.027, 0
  %17 = select i1 %.not24, i64 -1, i64 %.027
  br label %.loopexit

18:                                               ; preds = %12
  %19 = getelementptr inbounds nuw i8, ptr %.01926, i64 1
  %20 = load i64, ptr %5, align 8, !tbaa !69
  %21 = add i64 %20, 1
  store i64 %21, ptr %5, align 8, !tbaa !69
  %22 = add nuw i64 %.027, 1
  %exitcond.not = icmp eq i64 %22, %umax
  br i1 %exitcond.not, label %.loopexit, label %12, !llvm.loop !98

.loopexit:                                        ; preds = %18, %6, %4, %16
  %.018 = phi i64 [ %17, %16 ], [ -2, %4 ], [ 0, %6 ], [ %umax, %18 ]
  ret i64 %.018
}